ccopy_reg
_reconstructor
p0
(cpybrain.structure.networks.feedforward
FeedForwardNetwork
p1
c__builtin__
object
p2
Ntp3
Rp4
(dp5
S'indim'
p6
I1
sS'modulesSorted'
p7
(lp8
g0
(cpybrain.structure.modules.biasunit
BiasUnit
p9
g2
Ntp10
Rp11
(dp12
g6
I0
sS'inputbuffer'
p13
cnumpy.core.multiarray
_reconstruct
p14
(cnumpy
ndarray
p15
(I0
tp16
S'b'
p17
tp18
Rp19
(I1
(I1
I0
tp20
cnumpy
dtype
p21
(S'f8'
p22
I0
I1
tp23
Rp24
(I3
S'<'
p25
NNNI-1
I-1
I0
tp26
bI00
S''
p27
tp28
bsS'outputerror'
p29
g14
(g15
(I0
tp30
g17
tp31
Rp32
(I1
(I1
I1
tp33
g24
I00
S'\x00\x00\x00\x00\x00\x00\x00\x00'
p34
tp35
bsS'inputerror'
p36
g14
(g15
(I0
tp37
g17
tp38
Rp39
(I1
(I1
I0
tp40
g24
I00
g27
tp41
bsS'outputbuffer'
p42
g14
(g15
(I0
tp43
g17
tp44
Rp45
(I1
(I1
I1
tp46
g24
I00
S'\x00\x00\x00\x00\x00\x00\xf0?'
p47
tp48
bsS'_name'
p49
S'bias'
p50
sS'argdict'
p51
(dp52
S'name'
p53
g50
ssS'outdim'
p54
I1
sS'offset'
p55
I0
sS'bufferlist'
p56
(lp57
(S'inputbuffer'
p58
I0
tp59
a(S'inputerror'
p60
I0
tp61
a(S'outputbuffer'
p62
I1
tp63
a(S'outputerror'
p64
I1
tp65
asbag0
(cpybrain.structure.modules.linearlayer
LinearLayer
p66
g2
Ntp67
Rp68
(dp69
g6
I1
sg13
g14
(g15
(I0
tp70
g17
tp71
Rp72
(I1
(I1
I1
tp73
g24
I00
S'\x00\x00\x00\x00\x00\x80A@'
p74
tp75
bsS'dim'
p76
I1
sg29
g14
(g15
(I0
tp77
g17
tp78
Rp79
(I1
(I1
I1
tp80
g24
I00
S'\x00\x00\x00\x00\x00\x00\x00\x00'
p81
tp82
bsg36
g14
(g15
(I0
tp83
g17
tp84
Rp85
(I1
(I1
I1
tp86
g24
I00
S'\x00\x00\x00\x00\x00\x00\x00\x00'
p87
tp88
bsg42
g14
(g15
(I0
tp89
g17
tp90
Rp91
(I1
(I1
I1
tp92
g24
I00
S'\x00\x00\x00\x00\x00\x80A@'
p93
tp94
bsg49
S'in'
p95
sg51
(dp96
S'dim'
p97
I1
sg53
g95
ssg54
I1
sg55
I0
sg56
(lp98
(g58
I1
tp99
a(g60
I1
tp100
a(g62
I1
tp101
a(g64
I1
tp102
asbag0
(cpybrain.structure.modules.sigmoidlayer
SigmoidLayer
p103
g2
Ntp104
Rp105
(dp106
g6
I3
sg13
g14
(g15
(I0
tp107
g17
tp108
Rp109
(I1
(I1
I3
tp110
g24
I00
S'\xa8\x81\xda\xec\xe2\x1f\x1a@\x06*#\xb7\x8e\xccR\xc0\x05A\xb9"q\x05L\xc0'
p111
tp112
bsg76
I3
sg29
g14
(g15
(I0
tp113
g17
tp114
Rp115
(I1
(I1
I3
tp116
g24
I00
S'\x00\x00\x00\x00\x00\x00\x00\x00\x00\x00\x00\x00\x00\x00\x00\x00\x00\x00\x00\x00\x00\x00\x00\x00'
p117
tp118
bsg36
g14
(g15
(I0
tp119
g17
tp120
Rp121
(I1
(I1
I3
tp122
g24
I00
S'\x00\x00\x00\x00\x00\x00\x00\x00\x00\x00\x00\x00\x00\x00\x00\x00\x00\x00\x00\x00\x00\x00\x00\x00'
p123
tp124
bsg42
g14
(g15
(I0
tp125
g17
tp126
Rp127
(I1
(I1
I3
tp128
g24
I00
S'@2\x83,\x14\xf4\xef?\x8b?\x1a\tY\xdc&9\xb4\xe1?\xd8\xaf\xb9\xe1:'
p129
tp130
bsg49
S'hidden0'
p131
sg51
(dp132
g97
I3
sg53
g131
ssg54
I3
sg55
I0
sg56
(lp133
(g58
I3
tp134
a(g60
I3
tp135
a(g62
I3
tp136
a(g64
I3
tp137
asbag0
(g66
g2
Ntp138
Rp139
(dp140
g6
I1
sg13
g14
(g15
(I0
tp141
g17
tp142
Rp143
(I1
(I1
I1
tp144
g24
I00
S'\x85\xe4*\xe6]\xff\xdd?'
p145
tp146
bsg76
I1
sg29
g14
(g15
(I0
tp147
g17
tp148
Rp149
(I1
(I1
I1
tp150
g24
I00
S'\x00\x00\x00\x00\x00\x00\x00\x00'
p151
tp152
bsg36
g14
(g15
(I0
tp153
g17
tp154
Rp155
(I1
(I1
I1
tp156
g24
I00
S'\x00\x00\x00\x00\x00\x00\x00\x00'
p157
tp158
bsg42
g14
(g15
(I0
tp159
g17
tp160
Rp161
(I1
(I1
I1
tp162
g24
I00
S'\x85\xe4*\xe6]\xff\xdd?'
p163
tp164
bsg49
S'out'
p165
sg51
(dp166
g97
I1
sg53
g165
ssg54
I1
sg55
I0
sg56
(lp167
(g58
I1
tp168
a(g60
I1
tp169
a(g62
I1
tp170
a(g64
I1
tp171
asbasS'inmodules'
p172
(lp173
g68
asg29
g14
(g15
(I0
tp174
g17
tp175
Rp176
(I1
(I1
I1
tp177
g24
I00
S'\x00\x00\x00\x00\x00\x00\x00\x00'
p178
tp179
bsg36
g14
(g15
(I0
tp180
g17
tp181
Rp182
(I1
(I1
I1
tp183
g24
I00
S'\x00\x00\x00\x00\x00\x00\x00\x00'
p184
tp185
bsS'_derivs'
p186
g14
(g15
(I0
tp187
g17
tp188
Rp189
(I1
(I10
tp190
g24
I00
S'\x00\x00\x00\x00\x00\x00\x00\x80\x00\x00\x00\x00\x00\x00\x00\x00\x00\x00\x00\x00\x00\x00\x00\x80\x00\x00\x00\x00\x00\x00\x00\x80\x00\x00\x00\x00\x00\x00\x00\x00\x00\x00\x00\x00\x00\x00\x00\x80\x00\x00\x00\x00\x00\x00\x00\x80\x00\x00\x00\x00\x00\x00\x00\x80\x00\x00\x00\x00\x00\x00\x00\x80\x00\x00\x00\x00\x00\x00\x00\x80'
p191
tp192
bsS'modules'
p193
c__builtin__
set
p194
((lp195
g105
ag68
ag11
ag139
atp196
Rp197
sg42
g14
(g15
(I0
tp198
g17
tp199
Rp200
(I1
(I1
I1
tp201
g24
I00
S'\x85\xe4*\xe6]\xff\xdd?'
p202
tp203
bsg49
S'FeedForwardNetwork-8'
p204
sS'connections'
p205
(dp206
g105
(lp207
g0
(cpybrain.structure.connections.full
FullConnection
p208
g2
Ntp209
Rp210
(dp211
g6
I3
sg54
I1
sS'outSliceFrom'
p212
I0
sS'inSliceTo'
p213
I3
sS'inmod'
p214
g105
sg186
g14
(g15
(I0
tp215
g17
tp216
Rp217
(I1
(I3
tp218
g24
I00
S'\x9cbe\x85*\xc0\x8a@T\x96u\x80\x18df\xc0\xc1\xbf8\xc9\x8fUu\xc0'
p219
tp220
bsS'outmod'
p221
g139
sg49
S'FullConnection-7'
p222
sg51
(dp223
S'inmod'
p224
g105
sS'outmod'
p225
g139
ssS'paramdim'
p226
I3
sS'owner'
p227
g4
sS'outSliceTo'
p228
I1
sS'hasDerivatives'
p229
I01
sS'inSliceFrom'
p230
I0
sS'_params'
p231
g14
(g15
(I0
tp232
g17
tp233
Rp234
(I1
(I3
tp235
g24
I00
S'\xa0DD_\x82(\xd7\xbf\xd30\x90\xfb\x95h\xd7?\x16\xdd\x06*\xd4\xea\xf5?'
p236
tp237
bsbasg68
(lp238
g0
(g208
g2
Ntp239
Rp240
(dp241
g6
I1
sg54
I3
sg212
I0
sg213
I1
sg214
g68
sg186
g14
(g15
(I0
tp242
g17
tp243
Rp244
(I1
(I3
tp245
g24
I00
S'R\x0c\xe5O\xc4\x93\x84@\xacL\xbf\x16\xb3\xc8W\xc0j\xce\x0f\x1f\x08\xc5\x85\xc0'
p246
tp247
bsg221
g105
sg49
S'FullConnection-4'
p248
sg51
(dp249
g224
g68
sg225
g105
ssg226
I3
sg227
g4
sg228
I3
sg229
I01
sg230
I0
sg231
g14
(g15
(I0
tp250
g17
tp251
Rp252
(I1
(I3
tp253
g24
I00
S"'\x19\x12\xfc\xf4\x8c\xc6?\x00}\x19V\xf4a\x01\xc0>\x85\xfb~\x97\xeb\xf9\xbf"
p254
tp255
bsbasg11
(lp256
g0
(g208
g2
Ntp257
Rp258
(dp259
g6
I1
sg54
I1
sg212
I0
sg213
I1
sg214
g11
sg186
g14
(g15
(I0
tp260
g17
tp261
Rp262
(I1
(I1
tp263
g24
I00
S' ?\xda\xc3r|~\xc0'
p264
tp265
bsg221
g139
sg49
S'FullConnection-5'
p266
sg51
(dp267
g224
g11
sg225
g139
ssg226
I1
sg227
g4
sg228
I1
sg229
I01
sg230
I0
sg231
g14
(g15
(I0
tp268
g17
tp269
Rp270
(I1
(I1
tp271
g24
I00
S'F\xc8\t\xd7\x9f\x8f\xea?'
p272
tp273
bsbag0
(g208
g2
Ntp274
Rp275
(dp276
g6
I1
sg54
I3
sg212
I0
sg213
I1
sg214
g11
sg186
g14
(g15
(I0
tp277
g17
tp278
Rp279
(I1
(I3
tp280
g24
I00
S' ]\\\x83c\xb5t@\xbcy\xe6\xbf\xe2iM\xc0\xd0\x97\x93b\x93jy\xc0'
p281
tp282
bsg221
g105
sg49
S'FullConnection-6'
p283
sg51
(dp284
g224
g11
sg225
g105
ssg226
I3
sg227
g4
sg228
I3
sg229
I01
sg230
I0
sg231
g14
(g15
(I0
tp285
g17
tp286
Rp287
(I1
(I3
tp288
g24
I00
S'Xbk\x92o[\xd7?\xf3X[\x84CJ\xeb?\xdb-v\n$\x0f\xe5?'
p289
tp290
bsbasg139
(lp291
ssS'motherconnections'
p292
(lp293
sg13
g14
(g15
(I0
tp294
g17
tp295
Rp296
(I1
(I1
I1
tp297
g24
I00
S'\x00\x00\x00\x00\x00\x80A@'
p298
tp299
bsg51
(dp300
g53
g204
ssg54
I1
sS'outmodules'
p301
(lp302
g139
asg226
I10
sg56
(lp303
(g58
I1
tp304
a(g60
I1
tp305
a(g62
I1
tp306
a(g64
I1
tp307
asS'sorted'
p308
I01
sS'_Network__offset'
p309
I0
sg229
I01
sg231
g14
(g15
(I0
tp310
g17
tp311
Rp312
(I1
(I10
tp313
g24
I00
S"F\xc8\t\xd7\x9f\x8f\xea?Xbk\x92o[\xd7?\xf3X[\x84CJ\xeb?\xdb-v\n$\x0f\xe5?'\x19\x12\xfc\xf4\x8c\xc6?\x00}\x19V\xf4a\x01\xc0>\x85\xfb~\x97\xeb\xf9\xbf\xa0DD_\x82(\xd7\xbf\xd30\x90\xfb\x95h\xd7?\x16\xdd\x06*\xd4\xea\xf5?"
p314
tp315
bsb.