ccopy_reg
_reconstructor
p0
(cpybrain.structure.networks.feedforward
FeedForwardNetwork
p1
c__builtin__
object
p2
Ntp3
Rp4
(dp5
S'indim'
p6
I1
sS'modulesSorted'
p7
(lp8
g0
(cpybrain.structure.modules.biasunit
BiasUnit
p9
g2
Ntp10
Rp11
(dp12
g6
I0
sS'inputbuffer'
p13
cnumpy.core.multiarray
_reconstruct
p14
(cnumpy
ndarray
p15
(I0
tp16
S'b'
p17
tp18
Rp19
(I1
(I1
I0
tp20
cnumpy
dtype
p21
(S'f8'
p22
I0
I1
tp23
Rp24
(I3
S'<'
p25
NNNI-1
I-1
I0
tp26
bI00
S''
p27
tp28
bsS'outputerror'
p29
g14
(g15
(I0
tp30
g17
tp31
Rp32
(I1
(I1
I1
tp33
g24
I00
S'\x1e\x1a\xcdg\xbfx\x17\xc0'
p34
tp35
bsS'inputerror'
p36
g14
(g15
(I0
tp37
g17
tp38
Rp39
(I1
(I1
I0
tp40
g24
I00
g27
tp41
bsS'outputbuffer'
p42
g14
(g15
(I0
tp43
g17
tp44
Rp45
(I1
(I1
I1
tp46
g24
I00
S'\x00\x00\x00\x00\x00\x00\xf0?'
p47
tp48
bsS'_name'
p49
S'bias'
p50
sS'argdict'
p51
(dp52
S'name'
p53
g50
ssS'outdim'
p54
I1
sS'offset'
p55
I0
sS'bufferlist'
p56
(lp57
(g13
I0
tp58
a(g36
I0
tp59
a(g42
I1
tp60
a(g29
I1
tp61
asbag0
(cpybrain.structure.modules.linearlayer
LinearLayer
p62
g2
Ntp63
Rp64
(dp65
g6
I1
sg13
g14
(g15
(I0
tp66
g17
tp67
Rp68
(I1
(I1
I1
tp69
g24
I00
S'\x00\x00\x00\x00\x00\x009@'
p70
tp71
bsS'dim'
p72
I1
sg29
g14
(g15
(I0
tp73
g17
tp74
Rp75
(I1
(I1
I1
tp76
g24
I00
S'\xea\xa3E\x9e\xcbbE\x94'
p77
tp78
bsg36
g14
(g15
(I0
tp79
g17
tp80
Rp81
(I1
(I1
I1
tp82
g24
I00
S'\xea\xa3E\x9e\xcbbE\x94'
p83
tp84
bsg42
g14
(g15
(I0
tp85
g17
tp86
Rp87
(I1
(I1
I1
tp88
g24
I00
S'\x00\x00\x00\x00\x00\x009@'
p89
tp90
bsg49
S'in'
p91
sg51
(dp92
g72
I1
sg53
g91
ssg54
I1
sg55
I0
sg56
(lp93
(g13
I1
tp94
a(g36
I1
tp95
a(g42
I1
tp96
a(g29
I1
tp97
asbag0
(cpybrain.structure.modules.sigmoidlayer
SigmoidLayer
p98
g2
Ntp99
Rp100
(dp101
g6
I3
sg13
g14
(g15
(I0
tp102
g17
tp103
Rp104
(I1
(I1
I3
tp105
g24
I00
S'|\x943\xe0\x1ft\xc1\xc0\x80\xaa\xbe(\xf0\xa1\xb3\xc0>\xd4+;4\x06\xc6\xc0'
p106
tp107
bsg72
I3
sg29
g14
(g15
(I0
tp108
g17
tp109
Rp110
(I1
(I1
I3
tp111
g24
I00
S'\x87\x16\xd60H\x9e\xd5@\xe7\xb9\xb3\xb9\xe9\x84k\xc04.\x1e]\xfc\x7f\x96\xc0'
p112
tp113
bsg36
g14
(g15
(I0
tp114
g17
tp115
Rp116
(I1
(I1
I3
tp117
g24
I00
S'@Dv.\x94\xfd\xc0\x13Ew\xf8\xac\xd5\xa0U\x93<\xabX\x91\xf7\xae\x81\x93'
p118
tp119
bsg42
g14
(g15
(I0
tp120
g17
tp121
Rp122
(I1
(I1
I3
tp123
g24
I00
S'\x8cC\xd4x^&\xd9\x12\x8cC\xd4x^&\xd9\x12\x8cC\xd4x^&\xd9\x12'
p124
tp125
bsg49
S'hidden0'
p126
sg51
(dp127
g72
I3
sg53
g126
ssg54
I3
sg55
I0
sg56
(lp128
(g13
I3
tp129
a(g36
I3
tp130
a(g42
I3
tp131
a(g29
I3
tp132
asbag0
(g62
g2
Ntp133
Rp134
(dp135
g6
I1
sg13
g14
(g15
(I0
tp136
g17
tp137
Rp138
(I1
(I1
I1
tp139
g24
I00
S'Z+\xb44\x9c\xc9\x07@'
p140
tp141
bsg72
I1
sg29
g14
(g15
(I0
tp142
g17
tp143
Rp144
(I1
(I1
I1
tp145
g24
I00
S'\xb4Vhi8\x93\xff\xbf'
p146
tp147
bsg36
g14
(g15
(I0
tp148
g17
tp149
Rp150
(I1
(I1
I1
tp151
g24
I00
S'\xb4Vhi8\x93\xff\xbf'
p152
tp153
bsg42
g14
(g15
(I0
tp154
g17
tp155
Rp156
(I1
(I1
I1
tp157
g24
I00
S'Z+\xb44\x9c\xc9\x07@'
p158
tp159
bsg49
S'out'
p160
sg51
(dp161
g72
I1
sg53
g160
ssg54
I1
sg55
I0
sg56
(lp162
(g13
I1
tp163
a(g36
I1
tp164
a(g42
I1
tp165
a(g29
I1
tp166
asbasS'inmodules'
p167
(lp168
g64
asg29
g14
(g15
(I0
tp169
g17
tp170
Rp171
(I1
(I1
I1
tp172
g24
I00
S'\xb4Vhi8\x93\xff\xbf'
p173
tp174
bsg36
g14
(g15
(I0
tp175
g17
tp176
Rp177
(I1
(I1
I1
tp178
g24
I00
S'\xea\xa3E\x9e\xcbbE\x94'
p179
tp180
bsS'_derivs'
p181
g14
(g15
(I0
tp182
g17
tp183
Rp184
(I1
(I10
tp185
g24
I00
S'\x00\x00\x00\x00\x00\x00\x00\x80\x00\x00\x00\x00\x00\x00\x00\x00\x00\x00\x00\x00\x00\x00\x00\x80\x00\x00\x00\x00\x00\x00\x00\x80\x00\x00\x00\x00\x00\x00\x00\x00\x00\x00\x00\x00\x00\x00\x00\x80\x00\x00\x00\x00\x00\x00\x00\x80\x00\x00\x00\x00\x00\x00\x00\x80\x00\x00\x00\x00\x00\x00\x00\x80\x00\x00\x00\x00\x00\x00\x00\x80'
p186
tp187
bsS'modules'
p188
c__builtin__
set
p189
((lp190
g134
ag11
ag64
ag100
atp191
Rp192
sg42
g14
(g15
(I0
tp193
g17
tp194
Rp195
(I1
(I1
I1
tp196
g24
I00
S'Z+\xb44\x9c\xc9\x07@'
p197
tp198
bsg49
S'FeedForwardNetwork-8'
p199
sS'connections'
p200
(dp201
g134
(lp202
sg11
(lp203
g0
(cpybrain.structure.connections.full
FullConnection
p204
g2
Ntp205
Rp206
(dp207
g6
I1
sg54
I1
sS'outSliceFrom'
p208
I0
sS'inSliceTo'
p209
I1
sS'inmod'
p210
g11
sg181
g14
(g15
(I0
tp211
g17
tp212
Rp213
(I1
(I1
tp214
g24
I00
S'\x00\x00\x00\x00\x00\x00\x00\x80'
p215
tp216
bsS'outmod'
p217
g134
sg49
S'FullConnection-4'
p218
sg51
(dp219
g210
g11
sg217
g134
ssS'paramdim'
p220
I1
sS'owner'
p221
g4
sS'outSliceTo'
p222
I1
sS'hasDerivatives'
p223
I01
sS'inSliceFrom'
p224
I0
sS'_params'
p225
g14
(g15
(I0
tp226
g17
tp227
Rp228
(I1
(I1
tp229
g24
I00
S'\xfck\xb5\xed\x92\x8e\xfb\xbf'
p230
tp231
bsbag0
(g204
g2
Ntp232
Rp233
(dp234
g6
I1
sg54
I3
sg208
I0
sg209
I1
sg210
g11
sg181
g14
(g15
(I0
tp235
g17
tp236
Rp237
(I1
(I3
tp238
g24
I00
S'\x00\x00\x00\x00\x00\x00\x00\x00\x00\x00\x00\x00\x00\x00\x00\x80\x00\x00\x00\x00\x00\x00\x00\x80'
p239
tp240
bsg217
g100
sg49
S'FullConnection-5'
p241
sg51
(dp242
g210
g11
sg217
g100
ssg220
I3
sg221
g4
sg222
I3
sg223
I01
sg224
I0
sg225
g14
(g15
(I0
tp243
g17
tp244
Rp245
(I1
(I3
tp246
g24
I00
S'\x1b\xdd\xc1ai\xd7Z\xc0\xce\xdd8C\x8eoP\xc0\x95\x89#[\xd8vb\xc0'
p247
tp248
bsbasg64
(lp249
g0
(g204
g2
Ntp250
Rp251
(dp252
g6
I1
sg54
I3
sg208
I0
sg209
I1
sg210
g64
sg181
g14
(g15
(I0
tp253
g17
tp254
Rp255
(I1
(I3
tp256
g24
I00
S'\x00\x00\x00\x00\x00\x00\x00\x00\x00\x00\x00\x00\x00\x00\x00\x80\x00\x00\x00\x00\x00\x00\x00\x80'
p257
tp258
bsg217
g100
sg49
S'FullConnection-6'
p259
sg51
(dp260
g210
g64
sg217
g100
ssg220
I3
sg221
g4
sg222
I3
sg223
I01
sg224
I0
sg225
g14
(g15
(I0
tp261
g17
tp262
Rp263
(I1
(I3
tp264
g24
I00
S'$\x8av\xa0\xe2\x12v\xc0\xef\xc2w\x7f}\xcdh\xc0R\x9c\x93R\xdc\xd2{\xc0'
p265
tp266
bsbasg100
(lp267
g0
(g204
g2
Ntp268
Rp269
(dp270
g6
I3
sg54
I1
sg208
I0
sg209
I3
sg210
g100
sg181
g14
(g15
(I0
tp271
g17
tp272
Rp273
(I1
(I3
tp274
g24
I00
S'\x00\x00\x00\x00\x00\x00\x00\x80\x00\x00\x00\x00\x00\x00\x00\x80\x00\x00\x00\x00\x00\x00\x00\x80'
p275
tp276
bsg217
g134
sg49
S'FullConnection-7'
p277
sg51
(dp278
g210
g100
sg217
g134
ssg220
I3
sg221
g4
sg222
I1
sg223
I01
sg224
I0
sg225
g14
(g15
(I0
tp279
g17
tp280
Rp281
(I1
(I3
tp282
g24
I00
S'l\xac\xdd\x7f&\xe9\xc5\xc0\xd3X\xfd\xca6\xe4[@\xea\xd2\xec\x1b\xe7\xcd\x86@'
p283
tp284
bsbassS'motherconnections'
p285
(lp286
sg13
g14
(g15
(I0
tp287
g17
tp288
Rp289
(I1
(I1
I1
tp290
g24
I00
S'\x00\x00\x00\x00\x00\x009@'
p291
tp292
bsg51
(dp293
g53
g199
ssg54
I1
sS'outmodules'
p294
(lp295
g134
asg220
I10
sg56
(lp296
(g13
I1
tp297
a(g36
I1
tp298
a(g42
I1
tp299
a(g29
I1
tp300
asS'sorted'
p301
I01
sS'_Network__offset'
p302
I0
sg223
I01
sg225
g14
(g15
(I0
tp303
g17
tp304
Rp305
(I1
(I10
tp306
g24
I00
S'\xfck\xb5\xed\x92\x8e\xfb\xbf\x1b\xdd\xc1ai\xd7Z\xc0\xce\xdd8C\x8eoP\xc0\x95\x89#[\xd8vb\xc0$\x8av\xa0\xe2\x12v\xc0\xef\xc2w\x7f}\xcdh\xc0R\x9c\x93R\xdc\xd2{\xc0l\xac\xdd\x7f&\xe9\xc5\xc0\xd3X\xfd\xca6\xe4[@\xea\xd2\xec\x1b\xe7\xcd\x86@'
p307
tp308
bsb.